target datalayout = "e-m:e-p270:32:32-p271:32:32-p272:64:64-i64:64-i128:128-f80:128-n8:16:32:64-S128"
target triple = "x86_64-pc-linux-gnu"

%struct.AVChannelLayout = type { i32, i32, %union.anon, ptr }
%union.anon = type { i64 }
%struct.AVStream = type { ptr, i32, i32, ptr, ptr, %struct.AVRational, i64, i64, i64, i32, i32, %struct.AVRational, ptr, %struct.AVRational, %struct.AVPacket, i32, %struct.AVRational, i32 }
%struct.AVPacket = type { ptr, i64, i64, ptr, i32, i32, i32, ptr, i32, i64, i64, ptr, ptr, %struct.AVRational }
%struct.AVRational = type { i32, i32 }
%struct.AVCodecParameters = type { i32, i32, i32, ptr, i32, ptr, i32, i32, i64, i32, i32, i32, i32, i32, i32, %struct.AVRational, %struct.AVRational, i32, i32, i32, i32, i32, i32, i32, %struct.AVChannelLayout, i32, i32, i32, i32, i32, i32 }
%struct.AVFormatContext = type { ptr, ptr, ptr, ptr, ptr, i32, i32, ptr, i32, ptr, i32, ptr, ptr, i64, i64, i64, i32, i32, i32, i64, i64, ptr, i32, i32, ptr, i32, i32, i32, i32, ptr, i64, i32, i32, %struct.AVIOInterruptCB, i32, i32, i32, i32, i64, i32, i32, i32, i32, i32, i32, i32, i32, i32, i32, i32, i32, i64, i32, i32, i32, i32, i32, ptr, ptr, ptr, ptr, i32, ptr, ptr, ptr, ptr, i32, ptr, ptr, i64, ptr, ptr, ptr, i64 }
%struct.AVIOInterruptCB = type { ptr, ptr }
%struct.ArgoASFMuxContext = type { ptr, i32, i32, ptr, i64 }

; Function Attrs: nounwind uwtable
define internal i32 @argo_asf_write_packet(ptr noundef %0, ptr noundef %1) #0 {
  %3 = alloca i32, align 4
  %4 = alloca ptr, align 8
  %5 = alloca ptr, align 8
  %6 = alloca ptr, align 8
  %7 = alloca ptr, align 8
  %8 = alloca i32, align 4
  %9 = alloca i32, align 4
  store ptr %0, ptr %4, align 8, !tbaa !20
  store ptr %1, ptr %5, align 8, !tbaa !86
  call void @llvm.lifetime.start.p0(i64 8, ptr %6) #6
  %10 = load ptr, ptr %4, align 8, !tbaa !20
  %11 = getelementptr inbounds nuw %struct.AVFormatContext, ptr %10, i32 0, i32 3
  %12 = load ptr, ptr %11, align 8, !tbaa !79
  store ptr %12, ptr %6, align 8, !tbaa !98
  call void @llvm.lifetime.start.p0(i64 8, ptr %7) #6
  %13 = load ptr, ptr %4, align 8, !tbaa !20
  %14 = getelementptr inbounds nuw %struct.AVFormatContext, ptr %13, i32 0, i32 7
  %15 = load ptr, ptr %14, align 8, !tbaa !88
  %16 = getelementptr inbounds ptr, ptr %15, i64 0
  %17 = load ptr, ptr %16, align 8, !tbaa !31
  %18 = getelementptr inbounds nuw %struct.AVStream, ptr %17, i32 0, i32 3
  %19 = load ptr, ptr %18, align 8, !tbaa !33
  store ptr %19, ptr %7, align 8, !tbaa !97
  call void @llvm.lifetime.start.p0(i64 4, ptr %8) #6
  %20 = load ptr, ptr %5, align 8, !tbaa !86
  %21 = getelementptr inbounds nuw %struct.AVPacket, ptr %20, i32 0, i32 4
  %22 = load i32, ptr %21, align 8, !tbaa !110
  %23 = load ptr, ptr %7, align 8, !tbaa !97
  %24 = getelementptr inbounds nuw %struct.AVCodecParameters, ptr %23, i32 0, i32 26
  %25 = load i32, ptr %24, align 4, !tbaa !57
  %26 = sdiv i32 %22, %25
  store i32 %26, ptr %8, align 4, !tbaa !52
  %27 = load ptr, ptr %5, align 8, !tbaa !86
  %28 = getelementptr inbounds nuw %struct.AVPacket, ptr %27, i32 0, i32 4
  %29 = load i32, ptr %28, align 8, !tbaa !110
  %30 = load ptr, ptr %7, align 8, !tbaa !97
  %31 = getelementptr inbounds nuw %struct.AVCodecParameters, ptr %30, i32 0, i32 26
  %32 = load i32, ptr %31, align 4, !tbaa !57
  %33 = srem i32 %29, %32
  %34 = icmp ne i32 %33, 0
  br i1 %34, label %35, label %36

35:                                               ; preds = %2
  store i32 -1094995529, ptr %3, align 4
  store i32 1, ptr %9, align 4
  br label %61

36:                                               ; preds = %2
  %37 = load ptr, ptr %6, align 8, !tbaa !98
  %38 = getelementptr inbounds nuw %struct.ArgoASFMuxContext, ptr %37, i32 0, i32 4
  %39 = load i64, ptr %38, align 8, !tbaa !111
  %40 = load i32, ptr %8, align 4, !tbaa !52
  %41 = sext i32 %40 to i64
  %42 = add nsw i64 %39, %41
  %43 = icmp sgt i64 %42, 4294967295
  br i1 %43, label %44, label %45

44:                                               ; preds = %36
  store i32 -1094995529, ptr %3, align 4
  store i32 1, ptr %9, align 4
  br label %61

45:                                               ; preds = %36
  %46 = load ptr, ptr %4, align 8, !tbaa !20
  %47 = getelementptr inbounds nuw %struct.AVFormatContext, ptr %46, i32 0, i32 4
  %48 = load ptr, ptr %47, align 8, !tbaa !66
  %49 = load ptr, ptr %5, align 8, !tbaa !86
  %50 = getelementptr inbounds nuw %struct.AVPacket, ptr %49, i32 0, i32 3
  %51 = load ptr, ptr %50, align 8, !tbaa !112
  %52 = load ptr, ptr %5, align 8, !tbaa !86
  %53 = getelementptr inbounds nuw %struct.AVPacket, ptr %52, i32 0, i32 4
  %54 = load i32, ptr %53, align 8, !tbaa !110
  call void @avio_write(ptr noundef %48, ptr noundef %51, i32 noundef %54)
  %55 = load i32, ptr %8, align 4, !tbaa !52
  %56 = sext i32 %55 to i64
  %57 = load ptr, ptr %6, align 8, !tbaa !98
  %58 = getelementptr inbounds nuw %struct.ArgoASFMuxContext, ptr %57, i32 0, i32 4
  %59 = load i64, ptr %58, align 8, !tbaa !111
  %60 = add nsw i64 %59, %56
  store i64 %60, ptr %58, align 8, !tbaa !111
  store i32 0, ptr %3, align 4
  store i32 1, ptr %9, align 4
  br label %61

61:                                               ; preds = %45, %44, %35
  call void @llvm.lifetime.end.p0(i64 4, ptr %8) #6
  call void @llvm.lifetime.end.p0(i64 8, ptr %7) #6
  call void @llvm.lifetime.end.p0(i64 8, ptr %6) #6
  %62 = load i32, ptr %3, align 4
  ret i32 %62
}