; Function Attrs: nounwind uwtable
define internal range(i32 -1094995529, 1) i32 @argo_asf_write_packet(ptr noundef readonly captures(none) %0, ptr noundef readonly captures(none) %1) #3 {
  %3 = getelementptr inbounds nuw i8, ptr %0, i64 48
  %4 = load ptr, ptr %3, align 8, !tbaa !64
  %5 = load ptr, ptr %4, align 8, !tbaa !65
  %6 = getelementptr inbounds nuw i8, ptr %5, i64 16
  %7 = load ptr, ptr %6, align 8, !tbaa !22
  %8 = getelementptr inbounds nuw i8, ptr %1, i64 32
  %9 = load i32, ptr %8, align 8, !tbaa !85
  %10 = getelementptr inbounds nuw i8, ptr %7, i64 156
  %11 = load i32, ptr %10, align 4, !tbaa !44
  %12 = srem i32 %9, %11
  %13 = sdiv i32 %9, %11
  %.not = icmp eq i32 %12, 0
  br i1 %.not, label %14, label %29

14:                                               ; preds = %2
  %15 = getelementptr inbounds nuw i8, ptr %0, i64 24
  %16 = load ptr, ptr %15, align 8, !tbaa !63
  %17 = getelementptr inbounds nuw i8, ptr %16, i64 24
  %18 = load i64, ptr %17, align 8, !tbaa !86
  %19 = sext i32 %13 to i64
  %20 = add nsw i64 %18, %19
  %21 = icmp sgt i64 %20, 4294967295
  br i1 %21, label %29, label %22

22:                                               ; preds = %14
  %23 = getelementptr inbounds nuw i8, ptr %0, i64 32
  %24 = load ptr, ptr %23, align 8, !tbaa !51
  %25 = getelementptr inbounds nuw i8, ptr %1, i64 24
  %26 = load ptr, ptr %25, align 8, !tbaa !87
  tail call void @avio_write(ptr noundef %24, ptr noundef %26, i32 noundef %9) #10
  %27 = load i64, ptr %17, align 8, !tbaa !86
  %28 = add nsw i64 %27, %19
  store i64 %28, ptr %17, align 8, !tbaa !86
  br label %29

29:                                               ; preds = %14, %2, %22
  %.0 = phi i32 [ 0, %22 ], [ -1094995529, %2 ], [ -1094995529, %14 ]
  ret i32 %.0
}